; Function Attrs: nounwind uwtable
define dso_local ptr @tuplesort_readtup_alloc(ptr noundef captures(none) %0, i64 noundef %1) local_unnamed_addr #0 {
  %3 = icmp ugt i64 %1, 1024
  br i1 %3, label %7, label %4

4:                                                ; preds = %2
  %5 = getelementptr inbounds nuw i8, ptr %0, i64 224
  %6 = load ptr, ptr %5, align 8
  %.not = icmp eq ptr %6, null
  br i1 %.not, label %7, label %11

7:                                                ; preds = %4, %2
  %8 = getelementptr inbounds nuw i8, ptr %0, i64 56
  %9 = load ptr, ptr %8, align 8
  %10 = tail call ptr @MemoryContextAlloc(ptr noundef %9, i64 noundef %1) #13
  br label %13

11:                                               ; preds = %4
  %12 = load ptr, ptr %6, align 8
  store ptr %12, ptr %5, align 8
  br label %13

13:                                               ; preds = %11, %7
  %.0 = phi ptr [ %10, %7 ], [ %6, %11 ]
  ret ptr %.0
}